target datalayout = "e-m:e-p270:32:32-p271:32:32-p272:64:64-i64:64-i128:128-f80:128-n8:16:32:64-S128"
target triple = "x86_64-pc-linux-gnu"

%struct.test_st = type { [32 x i8], i32, [4096 x i8], i32, ptr }

@.str.3 = private unnamed_addr constant [27 x i8] c"../openssl/test/cmactest.c\00", align 1
@.str.4 = private unnamed_addr constant [4 x i8] c"ctx\00", align 1
@.str.5 = private unnamed_addr constant [36 x i8] c"CMAC_Init(ctx, NULL, 0, NULL, NULL)\00", align 1
@.str.6 = private unnamed_addr constant [49 x i8] c"CMAC_Update(ctx, test[0].data, test[0].data_len)\00", align 1
@.str.7 = private unnamed_addr constant [49 x i8] c"CMAC_Init(ctx, NULL, 0, EVP_aes_128_cbc(), NULL)\00", align 1
@.str.8 = private unnamed_addr constant [57 x i8] c"CMAC_Init(ctx, test[0].key, test[0].key_len, NULL, NULL)\00", align 1
@.str.9 = private unnamed_addr constant [64 x i8] c"CMAC_Init(ctx, xtskey, sizeof(xtskey), EVP_aes_128_xts(), NULL)\00", align 1
@xtskey = internal constant [32 x i8] c"\00\01\02\03\04\05\06\07\08\09\0A\0B\0C\0D\0E\0F\10\11\12\13\14\15\16\17\18\19\1A\1B\1C\1D\1E\1F", align 16

; Function Attrs: nounwind uwtable
define internal i32 @test_cmac_bad() #0 {
  %1 = alloca ptr, align 8
  %2 = alloca i32, align 4
  call void @llvm.lifetime.start.p0(i64 8, ptr %1) #5
  store ptr null, ptr %1, align 8, !tbaa !4
  call void @llvm.lifetime.start.p0(i64 4, ptr %2) #5
  store i32 0, ptr %2, align 4, !tbaa !9
  %3 = call ptr @CMAC_CTX_new()
  store ptr %3, ptr %1, align 8, !tbaa !4
  %4 = load ptr, ptr %1, align 8, !tbaa !4
  %5 = call i32 @test_ptr(ptr noundef @.str.3, i32 noundef 146, ptr noundef @.str.4, ptr noundef %4)
  %6 = icmp ne i32 %5, 0
  br i1 %6, label %7, label %75

7:                                                ; preds = %0
  %8 = load ptr, ptr %1, align 8, !tbaa !4
  %9 = call i32 @CMAC_Init(ptr noundef %8, ptr noundef null, i64 noundef 0, ptr noundef null, ptr noundef null)
  %10 = icmp ne i32 %9, 0
  %11 = zext i1 %10 to i32
  %12 = call i32 @test_false(ptr noundef @.str.3, i32 noundef 147, ptr noundef @.str.5, i32 noundef %11)
  %13 = icmp ne i32 %12, 0
  br i1 %13, label %14, label %75

14:                                               ; preds = %7
  %15 = load ptr, ptr %1, align 8, !tbaa !4
  %16 = load i32, ptr getelementptr inbounds nuw (%struct.test_st, ptr @test, i32 0, i32 3), align 4, !tbaa !11
  %17 = sext i32 %16 to i64
  %18 = call i32 @CMAC_Update(ptr noundef %15, ptr noundef getelementptr inbounds nuw (%struct.test_st, ptr @test, i32 0, i32 2), i64 noundef %17)
  %19 = icmp ne i32 %18, 0
  %20 = zext i1 %19 to i32
  %21 = call i32 @test_false(ptr noundef @.str.3, i32 noundef 148, ptr noundef @.str.6, i32 noundef %20)
  %22 = icmp ne i32 %21, 0
  br i1 %22, label %23, label %75

23:                                               ; preds = %14
  %24 = load ptr, ptr %1, align 8, !tbaa !4
  %25 = call ptr @EVP_aes_128_cbc()
  %26 = call i32 @CMAC_Init(ptr noundef %24, ptr noundef null, i64 noundef 0, ptr noundef %25, ptr noundef null)
  %27 = icmp ne i32 %26, 0
  %28 = zext i1 %27 to i32
  %29 = call i32 @test_true(ptr noundef @.str.3, i32 noundef 150, ptr noundef @.str.7, i32 noundef %28)
  %30 = icmp ne i32 %29, 0
  br i1 %30, label %31, label %75

31:                                               ; preds = %23
  %32 = load ptr, ptr %1, align 8, !tbaa !4
  %33 = load i32, ptr getelementptr inbounds nuw (%struct.test_st, ptr @test, i32 0, i32 3), align 4, !tbaa !11
  %34 = sext i32 %33 to i64
  %35 = call i32 @CMAC_Update(ptr noundef %32, ptr noundef getelementptr inbounds nuw (%struct.test_st, ptr @test, i32 0, i32 2), i64 noundef %34)
  %36 = icmp ne i32 %35, 0
  %37 = zext i1 %36 to i32
  %38 = call i32 @test_false(ptr noundef @.str.3, i32 noundef 152, ptr noundef @.str.6, i32 noundef %37)
  %39 = icmp ne i32 %38, 0
  br i1 %39, label %40, label %75

40:                                               ; preds = %31
  %41 = load ptr, ptr %1, align 8, !tbaa !4
  %42 = load i32, ptr getelementptr inbounds nuw (%struct.test_st, ptr @test, i32 0, i32 1), align 16, !tbaa !14
  %43 = sext i32 %42 to i64
  %44 = call i32 @CMAC_Init(ptr noundef %41, ptr noundef @test, i64 noundef %43, ptr noundef null, ptr noundef null)
  %45 = icmp ne i32 %44, 0
  %46 = zext i1 %45 to i32
  %47 = call i32 @test_true(ptr noundef @.str.3, i32 noundef 154, ptr noundef @.str.8, i32 noundef %46)
  %48 = icmp ne i32 %47, 0
  br i1 %48, label %49, label %75

49:                                               ; preds = %40
  %50 = load ptr, ptr %1, align 8, !tbaa !4
  %51 = load i32, ptr getelementptr inbounds nuw (%struct.test_st, ptr @test, i32 0, i32 3), align 4, !tbaa !11
  %52 = sext i32 %51 to i64
  %53 = call i32 @CMAC_Update(ptr noundef %50, ptr noundef getelementptr inbounds nuw (%struct.test_st, ptr @test, i32 0, i32 2), i64 noundef %52)
  %54 = icmp ne i32 %53, 0
  %55 = zext i1 %54 to i32
  %56 = call i32 @test_true(ptr noundef @.str.3, i32 noundef 156, ptr noundef @.str.6, i32 noundef %55)
  %57 = icmp ne i32 %56, 0
  br i1 %57, label %58, label %75

58:                                               ; preds = %49
  %59 = load ptr, ptr %1, align 8, !tbaa !4
  %60 = call ptr @EVP_aes_128_xts()
  %61 = call i32 @CMAC_Init(ptr noundef %59, ptr noundef @xtskey, i64 noundef 32, ptr noundef %60, ptr noundef null)
  %62 = icmp ne i32 %61, 0
  %63 = zext i1 %62 to i32
  %64 = call i32 @test_false(ptr noundef @.str.3, i32 noundef 159, ptr noundef @.str.9, i32 noundef %63)
  %65 = icmp ne i32 %64, 0
  br i1 %65, label %66, label %75

66:                                               ; preds = %58
  %67 = load ptr, ptr %1, align 8, !tbaa !4
  %68 = load i32, ptr getelementptr inbounds nuw (%struct.test_st, ptr @test, i32 0, i32 3), align 4, !tbaa !11
  %69 = sext i32 %68 to i64
  %70 = call i32 @CMAC_Update(ptr noundef %67, ptr noundef getelementptr inbounds nuw (%struct.test_st, ptr @test, i32 0, i32 2), i64 noundef %69)
  %71 = icmp ne i32 %70, 0
  %72 = zext i1 %71 to i32
  %73 = call i32 @test_false(ptr noundef @.str.3, i32 noundef 160, ptr noundef @.str.6, i32 noundef %72)
  %74 = icmp ne i32 %73, 0
  br i1 %74, label %76, label %75

75:                                               ; preds = %66, %58, %49, %40, %31, %23, %14, %7, %0
  br label %77

76:                                               ; preds = %66
  store i32 1, ptr %2, align 4, !tbaa !9
  br label %77

77:                                               ; preds = %76, %75
  %78 = load ptr, ptr %1, align 8, !tbaa !4
  call void @CMAC_CTX_free(ptr noundef %78)
  %79 = load i32, ptr %2, align 4, !tbaa !9
  call void @llvm.lifetime.end.p0(i64 4, ptr %2) #5
  call void @llvm.lifetime.end.p0(i64 8, ptr %1) #5
  ret i32 %79
}