; Function Attrs: nounwind uwtable
define internal range(i32 0, 2) i32 @test_cmac_bad() #0 {
  %1 = tail call ptr @CMAC_CTX_new() #6
  %2 = tail call i32 @test_ptr(ptr noundef nonnull @.str.3, i32 noundef 146, ptr noundef nonnull @.str.4, ptr noundef %1) #6
  %.not = icmp eq i32 %2, 0
  br i1 %.not, label %55, label %3

3:                                                ; preds = %0
  %4 = tail call i32 @CMAC_Init(ptr noundef %1, ptr noundef null, i64 noundef 0, ptr noundef null, ptr noundef null) #6
  %5 = icmp ne i32 %4, 0
  %6 = zext i1 %5 to i32
  %7 = tail call i32 @test_false(ptr noundef nonnull @.str.3, i32 noundef 147, ptr noundef nonnull @.str.5, i32 noundef %6) #6
  %.not10 = icmp eq i32 %7, 0
  br i1 %.not10, label %55, label %8

8:                                                ; preds = %3
  %9 = load i32, ptr getelementptr inbounds nuw (i8, ptr @test, i64 4132), align 4, !tbaa !4
  %10 = sext i32 %9 to i64
  %11 = tail call i32 @CMAC_Update(ptr noundef %1, ptr noundef nonnull getelementptr inbounds nuw (i8, ptr @test, i64 36), i64 noundef %10) #6
  %12 = icmp ne i32 %11, 0
  %13 = zext i1 %12 to i32
  %14 = tail call i32 @test_false(ptr noundef nonnull @.str.3, i32 noundef 148, ptr noundef nonnull @.str.6, i32 noundef %13) #6
  %.not11 = icmp eq i32 %14, 0
  br i1 %.not11, label %55, label %15

15:                                               ; preds = %8
  %16 = tail call ptr @EVP_aes_128_cbc() #6
  %17 = tail call i32 @CMAC_Init(ptr noundef %1, ptr noundef null, i64 noundef 0, ptr noundef %16, ptr noundef null) #6
  %18 = icmp ne i32 %17, 0
  %19 = zext i1 %18 to i32
  %20 = tail call i32 @test_true(ptr noundef nonnull @.str.3, i32 noundef 150, ptr noundef nonnull @.str.7, i32 noundef %19) #6
  %.not12 = icmp eq i32 %20, 0
  br i1 %.not12, label %55, label %21

21:                                               ; preds = %15
  %22 = load i32, ptr getelementptr inbounds nuw (i8, ptr @test, i64 4132), align 4, !tbaa !4
  %23 = sext i32 %22 to i64
  %24 = tail call i32 @CMAC_Update(ptr noundef %1, ptr noundef nonnull getelementptr inbounds nuw (i8, ptr @test, i64 36), i64 noundef %23) #6
  %25 = icmp ne i32 %24, 0
  %26 = zext i1 %25 to i32
  %27 = tail call i32 @test_false(ptr noundef nonnull @.str.3, i32 noundef 152, ptr noundef nonnull @.str.6, i32 noundef %26) #6
  %.not13 = icmp eq i32 %27, 0
  br i1 %.not13, label %55, label %28

28:                                               ; preds = %21
  %29 = load i32, ptr getelementptr inbounds nuw (i8, ptr @test, i64 32), align 16, !tbaa !11
  %30 = sext i32 %29 to i64
  %31 = tail call i32 @CMAC_Init(ptr noundef %1, ptr noundef nonnull @test, i64 noundef %30, ptr noundef null, ptr noundef null) #6
  %32 = icmp ne i32 %31, 0
  %33 = zext i1 %32 to i32
  %34 = tail call i32 @test_true(ptr noundef nonnull @.str.3, i32 noundef 154, ptr noundef nonnull @.str.8, i32 noundef %33) #6
  %.not14 = icmp eq i32 %34, 0
  br i1 %.not14, label %55, label %35

35:                                               ; preds = %28
  %36 = load i32, ptr getelementptr inbounds nuw (i8, ptr @test, i64 4132), align 4, !tbaa !4
  %37 = sext i32 %36 to i64
  %38 = tail call i32 @CMAC_Update(ptr noundef %1, ptr noundef nonnull getelementptr inbounds nuw (i8, ptr @test, i64 36), i64 noundef %37) #6
  %39 = icmp ne i32 %38, 0
  %40 = zext i1 %39 to i32
  %41 = tail call i32 @test_true(ptr noundef nonnull @.str.3, i32 noundef 156, ptr noundef nonnull @.str.6, i32 noundef %40) #6
  %.not15 = icmp eq i32 %41, 0
  br i1 %.not15, label %55, label %42

42:                                               ; preds = %35
  %43 = tail call ptr @EVP_aes_128_xts() #6
  %44 = tail call i32 @CMAC_Init(ptr noundef %1, ptr noundef nonnull @xtskey, i64 noundef 32, ptr noundef %43, ptr noundef null) #6
  %45 = icmp ne i32 %44, 0
  %46 = zext i1 %45 to i32
  %47 = tail call i32 @test_false(ptr noundef nonnull @.str.3, i32 noundef 159, ptr noundef nonnull @.str.9, i32 noundef %46) #6
  %.not16 = icmp eq i32 %47, 0
  br i1 %.not16, label %55, label %48

48:                                               ; preds = %42
  %49 = load i32, ptr getelementptr inbounds nuw (i8, ptr @test, i64 4132), align 4, !tbaa !4
  %50 = sext i32 %49 to i64
  %51 = tail call i32 @CMAC_Update(ptr noundef %1, ptr noundef nonnull getelementptr inbounds nuw (i8, ptr @test, i64 36), i64 noundef %50) #6
  %52 = icmp ne i32 %51, 0
  %53 = zext i1 %52 to i32
  %54 = tail call i32 @test_false(ptr noundef nonnull @.str.3, i32 noundef 160, ptr noundef nonnull @.str.6, i32 noundef %53) #6
  %.not17 = icmp ne i32 %54, 0
  %spec.select = zext i1 %.not17 to i32
  br label %55

55:                                               ; preds = %48, %0, %3, %8, %15, %21, %28, %35, %42
  %.0 = phi i32 [ 0, %42 ], [ 0, %35 ], [ 0, %28 ], [ 0, %21 ], [ 0, %15 ], [ 0, %8 ], [ 0, %3 ], [ 0, %0 ], [ %spec.select, %48 ]
  tail call void @CMAC_CTX_free(ptr noundef %1) #6
  ret i32 %.0
}